; Function Attrs: mustprogress nounwind uwtable
define internal void @"_ZN4absl12lts_2023080222internal_any_invocable23RemoteManagerNontrivialIZN17grpc_event_engine12experimental17NativeDNSResolver14LookupHostnameENS0_12AnyInvocableIFvNS0_8StatusOrISt6vectorINS4_11EventEngine15ResolvedAddressESaISA_EEEEEEESt17basic_string_viewIcSt11char_traitsIcEESJ_E3$_0EEvNS1_14FunctionToCallEPNS1_15TypeErasedStateESN_"(i1 noundef zeroext %operation, ptr nocapture noundef readonly %from, ptr nocapture noundef writeonly %to) #6 {
entry:
  %0 = load ptr, ptr %from, align 16
  br i1 %operation, label %sw.bb2, label %sw.bb

sw.bb:                                            ; preds = %entry
  store ptr %0, ptr %to, align 16
  br label %do.end

sw.bb2:                                           ; preds = %entry
  %isnull = icmp eq ptr %0, null
  br i1 %isnull, label %do.end, label %delete.notnull

delete.notnull:                                   ; preds = %sw.bb2
  %1 = getelementptr inbounds i8, ptr %0, i64 32
  %manager_.i.i.i.i = getelementptr inbounds i8, ptr %0, i64 48
  %2 = load ptr, ptr %manager_.i.i.i.i, align 16
  tail call void %2(i1 noundef zeroext true, ptr noundef nonnull %1, ptr noundef nonnull %1) #16
  tail call void @_ZdlPv(ptr noundef nonnull %0) #18
  br label %do.end

do.end:                                           ; preds = %sw.bb2, %delete.notnull, %sw.bb
  ret void
}